target datalayout = "e-m:e-p270:32:32-p271:32:32-p272:64:64-i64:64-i128:128-f80:128-n8:16:32:64-S128"
target triple = "x86_64-pc-linux-gnu"

%struct.AVProbeData = type { ptr, ptr, i32, ptr }

; Function Attrs: nounwind uwtable
define internal i32 @aea_read_probe(ptr noundef %0) #0 {
  %2 = alloca i32, align 4
  %3 = alloca ptr, align 8
  %4 = alloca i32, align 4
  %5 = alloca i32, align 4
  %6 = alloca i32, align 4
  %7 = alloca i32, align 4
  %8 = alloca i32, align 4
  store ptr %0, ptr %3, align 8, !tbaa !4
  %9 = load ptr, ptr %3, align 8, !tbaa !4
  %10 = getelementptr inbounds nuw %struct.AVProbeData, ptr %9, i32 0, i32 2
  %11 = load i32, ptr %10, align 8, !tbaa !9
  %12 = icmp sle i32 %11, 2260
  br i1 %12, label %13, label %14

13:                                               ; preds = %1
  store i32 0, ptr %2, align 4
  br label %88

14:                                               ; preds = %1
  %15 = load ptr, ptr %3, align 8, !tbaa !4
  %16 = getelementptr inbounds nuw %struct.AVProbeData, ptr %15, i32 0, i32 1
  %17 = load ptr, ptr %16, align 8, !tbaa !13
  %18 = load i32, ptr %17, align 1, !tbaa !14
  %19 = icmp eq i32 %18, 2048
  br i1 %19, label %20, label %87

20:                                               ; preds = %14
  call void @llvm.lifetime.start.p0(i64 4, ptr %4) #3
  call void @llvm.lifetime.start.p0(i64 4, ptr %5) #3
  call void @llvm.lifetime.start.p0(i64 4, ptr %6) #3
  store i32 0, ptr %6, align 4, !tbaa !15
  %21 = load ptr, ptr %3, align 8, !tbaa !4
  %22 = getelementptr inbounds nuw %struct.AVProbeData, ptr %21, i32 0, i32 1
  %23 = load ptr, ptr %22, align 8, !tbaa !13
  %24 = getelementptr inbounds i8, ptr %23, i64 264
  %25 = load i8, ptr %24, align 1, !tbaa !14
  %26 = zext i8 %25 to i32
  store i32 %26, ptr %4, align 4, !tbaa !15
  %27 = load i32, ptr %4, align 4, !tbaa !15
  %28 = icmp ne i32 %27, 1
  br i1 %28, label %29, label %33

29:                                               ; preds = %20
  %30 = load i32, ptr %4, align 4, !tbaa !15
  %31 = icmp ne i32 %30, 2
  br i1 %31, label %32, label %33

32:                                               ; preds = %29
  store i32 0, ptr %2, align 4
  store i32 1, ptr %7, align 4
  br label %86

33:                                               ; preds = %29, %20
  %34 = load i32, ptr %4, align 4, !tbaa !15
  %35 = mul nsw i32 %34, 212
  store i32 %35, ptr %5, align 4, !tbaa !15
  call void @llvm.lifetime.start.p0(i64 4, ptr %8) #3
  %36 = load i32, ptr %5, align 4, !tbaa !15
  %37 = add nsw i32 2048, %36
  store i32 %37, ptr %8, align 4, !tbaa !15
  br label %38

38:                                               ; preds = %70, %33
  %39 = load i32, ptr %8, align 4, !tbaa !15
  %40 = load i32, ptr %5, align 4, !tbaa !15
  %41 = add nsw i32 %39, %40
  %42 = load ptr, ptr %3, align 8, !tbaa !4
  %43 = getelementptr inbounds nuw %struct.AVProbeData, ptr %42, i32 0, i32 2
  %44 = load i32, ptr %43, align 8, !tbaa !9
  %45 = icmp sle i32 %41, %44
  br i1 %45, label %47, label %46

46:                                               ; preds = %38
  store i32 2, ptr %7, align 4
  br label %74

47:                                               ; preds = %38
  %48 = load ptr, ptr %3, align 8, !tbaa !4
  %49 = getelementptr inbounds nuw %struct.AVProbeData, ptr %48, i32 0, i32 1
  %50 = load ptr, ptr %49, align 8, !tbaa !13
  %51 = load i32, ptr %8, align 4, !tbaa !15
  %52 = sext i32 %51 to i64
  %53 = getelementptr inbounds i8, ptr %50, i64 %52
  %54 = load i16, ptr %53, align 1, !tbaa !14
  %55 = zext i16 %54 to i32
  %56 = load ptr, ptr %3, align 8, !tbaa !4
  %57 = getelementptr inbounds nuw %struct.AVProbeData, ptr %56, i32 0, i32 1
  %58 = load ptr, ptr %57, align 8, !tbaa !13
  %59 = load i32, ptr %8, align 4, !tbaa !15
  %60 = sext i32 %59 to i64
  %61 = getelementptr inbounds i8, ptr %58, i64 %60
  %62 = getelementptr inbounds i8, ptr %61, i64 212
  %63 = load i16, ptr %62, align 1, !tbaa !14
  %64 = zext i16 %63 to i32
  %65 = icmp ne i32 %55, %64
  br i1 %65, label %66, label %67

66:                                               ; preds = %47
  store i32 0, ptr %2, align 4
  store i32 1, ptr %7, align 4
  br label %74

67:                                               ; preds = %47
  %68 = load i32, ptr %6, align 4, !tbaa !15
  %69 = add nsw i32 %68, 1
  store i32 %69, ptr %6, align 4, !tbaa !15
  br label %70

70:                                               ; preds = %67
  %71 = load i32, ptr %5, align 4, !tbaa !15
  %72 = load i32, ptr %8, align 4, !tbaa !15
  %73 = add nsw i32 %72, %71
  store i32 %73, ptr %8, align 4, !tbaa !15
  br label %38, !llvm.loop !16

74:                                               ; preds = %66, %46
  call void @llvm.lifetime.end.p0(i64 4, ptr %8) #3
  %75 = load i32, ptr %7, align 4
  switch i32 %75, label %86 [
    i32 2, label %76
  ]

76:                                               ; preds = %74
  %77 = load i32, ptr %6, align 4, !tbaa !15
  %78 = add nsw i32 25, %77
  %79 = icmp sgt i32 %78, 100
  br i1 %79, label %80, label %81

80:                                               ; preds = %76
  br label %84

81:                                               ; preds = %76
  %82 = load i32, ptr %6, align 4, !tbaa !15
  %83 = add nsw i32 25, %82
  br label %84

84:                                               ; preds = %81, %80
  %85 = phi i32 [ 100, %80 ], [ %83, %81 ]
  store i32 %85, ptr %2, align 4
  store i32 1, ptr %7, align 4
  br label %86

86:                                               ; preds = %84, %74, %32
  call void @llvm.lifetime.end.p0(i64 4, ptr %6) #3
  call void @llvm.lifetime.end.p0(i64 4, ptr %5) #3
  call void @llvm.lifetime.end.p0(i64 4, ptr %4) #3
  br label %88

87:                                               ; preds = %14
  store i32 0, ptr %2, align 4
  br label %88

88:                                               ; preds = %87, %86, %13
  %89 = load i32, ptr %2, align 4
  ret i32 %89
}