; Function Attrs: nofree norecurse nosync nounwind memory(read, inaccessiblemem: none) uwtable
define internal range(i32 0, 101) i32 @aea_read_probe(ptr noundef readonly captures(none) %0) #0 {
  %2 = getelementptr inbounds nuw i8, ptr %0, i64 16
  %3 = load i32, ptr %2, align 8, !tbaa !4
  %4 = icmp slt i32 %3, 2261
  br i1 %4, label %.loopexit, label %5

5:                                                ; preds = %1
  %6 = getelementptr inbounds nuw i8, ptr %0, i64 8
  %7 = load ptr, ptr %6, align 8, !tbaa !11
  %8 = load i32, ptr %7, align 1, !tbaa !12
  %9 = icmp eq i32 %8, 2048
  br i1 %9, label %10, label %.loopexit

10:                                               ; preds = %5
  %11 = getelementptr inbounds nuw i8, ptr %7, i64 264
  %12 = load i8, ptr %11, align 1, !tbaa !12
  %13 = add i8 %12, -3
  %or.cond = icmp ult i8 %13, -2
  br i1 %or.cond, label %.loopexit, label %14

14:                                               ; preds = %10
  %15 = zext nneg i8 %12 to i32
  %16 = mul nuw nsw i32 %15, 212
  %17 = or disjoint i32 %16, 2048
  %18 = add nuw nsw i32 %17, %16
  %.not27 = icmp samesign ugt i32 %18, %3
  br i1 %.not27, label %.critedge, label %.lr.ph.preheader

.lr.ph.preheader:                                 ; preds = %14
  %19 = zext nneg i8 %12 to i64
  %20 = mul nuw nsw i64 %19, 424
  %21 = or disjoint i64 %20, 2048
  %22 = mul nuw nsw i64 %19, 212
  br label %.lr.ph

.lr.ph:                                           ; preds = %.lr.ph.preheader, %28
  %indvars.iv = phi i64 [ %21, %.lr.ph.preheader ], [ %indvars.iv.next, %28 ]
  %.029 = phi i32 [ %17, %.lr.ph.preheader ], [ %31, %28 ]
  %.02228 = phi i32 [ 0, %.lr.ph.preheader ], [ %29, %28 ]
  %23 = zext nneg i32 %.029 to i64
  %24 = getelementptr inbounds nuw i8, ptr %7, i64 %23
  %25 = load i16, ptr %24, align 1, !tbaa !12
  %26 = getelementptr inbounds nuw i8, ptr %24, i64 212
  %27 = load i16, ptr %26, align 1, !tbaa !12
  %.not25 = icmp eq i16 %25, %27
  br i1 %.not25, label %28, label %.loopexit

28:                                               ; preds = %.lr.ph
  %29 = add nuw nsw i32 %.02228, 1
  %indvars.iv.next = add nuw nsw i64 %indvars.iv, %22
  %30 = trunc nuw i64 %indvars.iv.next to i32
  %.not = icmp slt i32 %3, %30
  %31 = trunc nuw nsw i64 %indvars.iv to i32
  br i1 %.not, label %.critedge, label %.lr.ph, !llvm.loop !13

.critedge:                                        ; preds = %28, %14
  %.022.lcssa = phi i32 [ 0, %14 ], [ %29, %28 ]
  %32 = tail call i32 @llvm.umin.i32(i32 %.022.lcssa, i32 75)
  %33 = add nuw nsw i32 %32, 25
  br label %.loopexit

.loopexit:                                        ; preds = %.lr.ph, %5, %.critedge, %10, %1
  %.023 = phi i32 [ 0, %1 ], [ %33, %.critedge ], [ 0, %10 ], [ 0, %5 ], [ 0, %.lr.ph ]
  ret i32 %.023
}